target datalayout = "e-m:e-p270:32:32-p271:32:32-p272:64:64-i64:64-i128:128-f80:128-n8:16:32:64-S128"
target triple = "x86_64-pc-linux-gnu"

%"class.zxing::Ref" = type { ptr }
%"class.zxing::Binarizer" = type { %"class.zxing::Counted.base", %"class.zxing::Ref", i8, i8, i32, i32, i32, i32, %"class.zxing::Ref.0", %"class.zxing::Ref.0", %"class.zxing::Ref.0" }
%"class.zxing::Counted.base" = type <{ ptr, i32 }>
%"class.zxing::Ref.0" = type { ptr }

; Function Attrs: mustprogress nounwind uwtable
define hidden void @_ZN5zxing19FastWindowBinarizer12fastIntegralEPKhPj(ptr noundef nonnull align 8 dereferenceable(184) %0, ptr noundef %1, ptr noundef %2) #2 align 2 {
  %4 = alloca ptr, align 8
  %5 = alloca ptr, align 8
  %6 = alloca ptr, align 8
  %7 = alloca i32, align 4
  %8 = alloca i32, align 4
  %9 = alloca i32, align 4
  %10 = alloca ptr, align 8
  %11 = alloca ptr, align 8
  %12 = alloca i32, align 4
  %13 = alloca i32, align 4
  store ptr %0, ptr %4, align 8, !tbaa !3
  store ptr %1, ptr %5, align 8, !tbaa !58
  store ptr %2, ptr %6, align 8, !tbaa !60
  %14 = load ptr, ptr %4, align 8
  %15 = load ptr, ptr %6, align 8, !tbaa !60
  %16 = getelementptr inbounds nuw %"class.zxing::Binarizer", ptr %14, i32 0, i32 6
  %17 = load i32, ptr %16, align 4, !tbaa !12
  %18 = add nsw i32 %17, 1
  %19 = sext i32 %18 to i64
  %20 = getelementptr inbounds i32, ptr %15, i64 %19
  store i32 0, ptr %20, align 4, !tbaa !22
  %21 = load ptr, ptr %6, align 8, !tbaa !60
  %22 = getelementptr inbounds i32, ptr %21, i64 0
  store i32 0, ptr %22, align 4, !tbaa !22
  call void @llvm.lifetime.start.p0(i64 4, ptr %7) #9
  store i32 0, ptr %7, align 4, !tbaa !22
  br label %23

23:                                               ; preds = %60, %3
  %24 = load i32, ptr %7, align 4, !tbaa !22
  %25 = getelementptr inbounds nuw %"class.zxing::Binarizer", ptr %14, i32 0, i32 6
  %26 = load i32, ptr %25, align 4, !tbaa !12
  %27 = icmp slt i32 %24, %26
  br i1 %27, label %29, label %28

28:                                               ; preds = %23
  call void @llvm.lifetime.end.p0(i64 4, ptr %7) #9
  br label %63

29:                                               ; preds = %23
  %30 = load ptr, ptr %6, align 8, !tbaa !60
  %31 = load i32, ptr %7, align 4, !tbaa !22
  %32 = add nsw i32 %31, 1
  %33 = sext i32 %32 to i64
  %34 = getelementptr inbounds i32, ptr %30, i64 %33
  store i32 0, ptr %34, align 4, !tbaa !22
  %35 = load ptr, ptr %6, align 8, !tbaa !60
  %36 = getelementptr inbounds nuw %"class.zxing::Binarizer", ptr %14, i32 0, i32 6
  %37 = load i32, ptr %36, align 4, !tbaa !12
  %38 = add nsw i32 %37, 1
  %39 = load i32, ptr %7, align 4, !tbaa !22
  %40 = add nsw i32 %38, %39
  %41 = sext i32 %40 to i64
  %42 = getelementptr inbounds i32, ptr %35, i64 %41
  %43 = load i32, ptr %42, align 4, !tbaa !22
  %44 = load ptr, ptr %5, align 8, !tbaa !58
  %45 = load i32, ptr %7, align 4, !tbaa !22
  %46 = sext i32 %45 to i64
  %47 = getelementptr inbounds i8, ptr %44, i64 %46
  %48 = load i8, ptr %47, align 1, !tbaa !70
  %49 = zext i8 %48 to i32
  %50 = add i32 %43, %49
  %51 = load ptr, ptr %6, align 8, !tbaa !60
  %52 = getelementptr inbounds nuw %"class.zxing::Binarizer", ptr %14, i32 0, i32 6
  %53 = load i32, ptr %52, align 4, !tbaa !12
  %54 = add nsw i32 %53, 1
  %55 = load i32, ptr %7, align 4, !tbaa !22
  %56 = add nsw i32 %54, %55
  %57 = add nsw i32 %56, 1
  %58 = sext i32 %57 to i64
  %59 = getelementptr inbounds i32, ptr %51, i64 %58
  store i32 %50, ptr %59, align 4, !tbaa !22
  br label %60

60:                                               ; preds = %29
  %61 = load i32, ptr %7, align 4, !tbaa !22
  %62 = add nsw i32 %61, 1
  store i32 %62, ptr %7, align 4, !tbaa !22
  br label %23, !llvm.loop !71

63:                                               ; preds = %28
  call void @llvm.lifetime.start.p0(i64 4, ptr %8) #9
  store i32 1, ptr %8, align 4, !tbaa !22
  br label %64

64:                                               ; preds = %135, %63
  %65 = load i32, ptr %8, align 4, !tbaa !22
  %66 = getelementptr inbounds nuw %"class.zxing::Binarizer", ptr %14, i32 0, i32 7
  %67 = load i32, ptr %66, align 8, !tbaa !21
  %68 = icmp slt i32 %65, %67
  br i1 %68, label %70, label %69

69:                                               ; preds = %64
  store i32 5, ptr %9, align 4
  call void @llvm.lifetime.end.p0(i64 4, ptr %8) #9
  br label %138

70:                                               ; preds = %64
  call void @llvm.lifetime.start.p0(i64 8, ptr %10) #9
  %71 = load ptr, ptr %5, align 8, !tbaa !58
  %72 = load i32, ptr %8, align 4, !tbaa !22
  %73 = getelementptr inbounds nuw %"class.zxing::Binarizer", ptr %14, i32 0, i32 6
  %74 = load i32, ptr %73, align 4, !tbaa !12
  %75 = mul nsw i32 %72, %74
  %76 = sext i32 %75 to i64
  %77 = getelementptr inbounds i8, ptr %71, i64 %76
  store ptr %77, ptr %10, align 8, !tbaa !58
  call void @llvm.lifetime.start.p0(i64 8, ptr %11) #9
  %78 = load ptr, ptr %6, align 8, !tbaa !60
  %79 = load i32, ptr %8, align 4, !tbaa !22
  %80 = add nsw i32 %79, 1
  %81 = getelementptr inbounds nuw %"class.zxing::Binarizer", ptr %14, i32 0, i32 6
  %82 = load i32, ptr %81, align 4, !tbaa !12
  %83 = add nsw i32 %82, 1
  %84 = mul nsw i32 %80, %83
  %85 = sext i32 %84 to i64
  %86 = getelementptr inbounds i32, ptr %78, i64 %85
  store ptr %86, ptr %11, align 8, !tbaa !60
  %87 = load ptr, ptr %11, align 8, !tbaa !60
  %88 = getelementptr inbounds i32, ptr %87, i64 0
  store i32 0, ptr %88, align 4, !tbaa !22
  %89 = load ptr, ptr %10, align 8, !tbaa !58
  %90 = getelementptr inbounds i8, ptr %89, i64 0
  %91 = load i8, ptr %90, align 1, !tbaa !70
  %92 = zext i8 %91 to i32
  %93 = load ptr, ptr %11, align 8, !tbaa !60
  %94 = getelementptr inbounds i32, ptr %93, i64 1
  store i32 %92, ptr %94, align 4, !tbaa !22
  call void @llvm.lifetime.start.p0(i64 4, ptr %12) #9
  %95 = load ptr, ptr %10, align 8, !tbaa !58
  %96 = getelementptr inbounds i8, ptr %95, i64 0
  %97 = load i8, ptr %96, align 1, !tbaa !70
  %98 = zext i8 %97 to i32
  store i32 %98, ptr %12, align 4, !tbaa !22
  call void @llvm.lifetime.start.p0(i64 4, ptr %13) #9
  store i32 1, ptr %13, align 4, !tbaa !22
  br label %99

99:                                               ; preds = %131, %70
  %100 = load i32, ptr %13, align 4, !tbaa !22
  %101 = getelementptr inbounds nuw %"class.zxing::Binarizer", ptr %14, i32 0, i32 6
  %102 = load i32, ptr %101, align 4, !tbaa !12
  %103 = icmp slt i32 %100, %102
  br i1 %103, label %105, label %104

104:                                              ; preds = %99
  store i32 8, ptr %9, align 4
  call void @llvm.lifetime.end.p0(i64 4, ptr %13) #9
  br label %134

105:                                              ; preds = %99
  %106 = load ptr, ptr %10, align 8, !tbaa !58
  %107 = load i32, ptr %13, align 4, !tbaa !22
  %108 = sext i32 %107 to i64
  %109 = getelementptr inbounds i8, ptr %106, i64 %108
  %110 = load i8, ptr %109, align 1, !tbaa !70
  %111 = zext i8 %110 to i32
  %112 = load i32, ptr %12, align 4, !tbaa !22
  %113 = add nsw i32 %112, %111
  store i32 %113, ptr %12, align 4, !tbaa !22
  %114 = load ptr, ptr %11, align 8, !tbaa !60
  %115 = load i32, ptr %13, align 4, !tbaa !22
  %116 = add nsw i32 %115, 1
  %117 = getelementptr inbounds nuw %"class.zxing::Binarizer", ptr %14, i32 0, i32 6
  %118 = load i32, ptr %117, align 4, !tbaa !12
  %119 = sub nsw i32 %116, %118
  %120 = sub nsw i32 %119, 1
  %121 = sext i32 %120 to i64
  %122 = getelementptr inbounds i32, ptr %114, i64 %121
  %123 = load i32, ptr %122, align 4, !tbaa !22
  %124 = load i32, ptr %12, align 4, !tbaa !22
  %125 = add i32 %123, %124
  %126 = load ptr, ptr %11, align 8, !tbaa !60
  %127 = load i32, ptr %13, align 4, !tbaa !22
  %128 = add nsw i32 %127, 1
  %129 = sext i32 %128 to i64
  %130 = getelementptr inbounds i32, ptr %126, i64 %129
  store i32 %125, ptr %130, align 4, !tbaa !22
  br label %131

131:                                              ; preds = %105
  %132 = load i32, ptr %13, align 4, !tbaa !22
  %133 = add nsw i32 %132, 1
  store i32 %133, ptr %13, align 4, !tbaa !22
  br label %99, !llvm.loop !72

134:                                              ; preds = %104
  call void @llvm.lifetime.end.p0(i64 4, ptr %12) #9
  call void @llvm.lifetime.end.p0(i64 8, ptr %11) #9
  call void @llvm.lifetime.end.p0(i64 8, ptr %10) #9
  br label %135

135:                                              ; preds = %134
  %136 = load i32, ptr %8, align 4, !tbaa !22
  %137 = add nsw i32 %136, 1
  store i32 %137, ptr %8, align 4, !tbaa !22
  br label %64, !llvm.loop !73

138:                                              ; preds = %69
  ret void
}