; Function Attrs: mustprogress nofree norecurse nosync nounwind memory(argmem: readwrite) uwtable
define hidden void @_ZN5zxing19FastWindowBinarizer12fastIntegralEPKhPj(ptr noundef nonnull readonly align 8 captures(none) dereferenceable(184) %0, ptr noundef readonly captures(none) %1, ptr noundef captures(none) initializes((0, 4)) %2) local_unnamed_addr #7 align 2 {
  %4 = getelementptr inbounds nuw i8, ptr %0, i64 36
  %5 = load i32, ptr %4, align 4, !tbaa !16
  %6 = sext i32 %5 to i64
  %7 = getelementptr i32, ptr %2, i64 %6
  %8 = getelementptr i8, ptr %7, i64 4
  store i32 0, ptr %8, align 4, !tbaa !54
  store i32 0, ptr %2, align 4, !tbaa !54
  %9 = load i32, ptr %4, align 4, !tbaa !16
  %10 = icmp sgt i32 %9, 0
  br i1 %10, label %.lr.ph, label %.preheader

.preheader:                                       ; preds = %.lr.ph, %3
  %11 = phi i32 [ %9, %3 ], [ %27, %.lr.ph ]
  %12 = getelementptr inbounds nuw i8, ptr %0, i64 40
  %13 = load i32, ptr %12, align 8, !tbaa !22
  %14 = icmp sgt i32 %13, 1
  br i1 %14, label %.lr.ph41, label %._crit_edge

.lr.ph:                                           ; preds = %3, %.lr.ph
  %indvars.iv = phi i64 [ %indvars.iv.next, %.lr.ph ], [ 0, %3 ]
  %indvars.iv.next = add nuw nsw i64 %indvars.iv, 1
  %15 = getelementptr inbounds nuw i32, ptr %2, i64 %indvars.iv.next
  store i32 0, ptr %15, align 4, !tbaa !54
  %16 = load i32, ptr %4, align 4, !tbaa !16
  %17 = trunc nuw nsw i64 %indvars.iv.next to i32
  %18 = add i32 %16, %17
  %19 = sext i32 %18 to i64
  %20 = getelementptr inbounds i32, ptr %2, i64 %19
  %21 = load i32, ptr %20, align 4, !tbaa !54
  %22 = getelementptr inbounds nuw i8, ptr %1, i64 %indvars.iv
  %23 = load i8, ptr %22, align 1, !tbaa !61
  %24 = zext i8 %23 to i32
  %25 = add i32 %21, %24
  %26 = getelementptr i8, ptr %20, i64 4
  store i32 %25, ptr %26, align 4, !tbaa !54
  %27 = load i32, ptr %4, align 4, !tbaa !16
  %28 = sext i32 %27 to i64
  %29 = icmp slt i64 %indvars.iv.next, %28
  br i1 %29, label %.lr.ph, label %.preheader, !llvm.loop !62

.loopexit:                                        ; preds = %.lr.ph39, %.lr.ph41
  %30 = phi i32 [ %45, %.lr.ph41 ], [ %61, %.lr.ph39 ]
  %31 = load i32, ptr %12, align 8, !tbaa !22
  %32 = icmp slt i32 %37, %31
  br i1 %32, label %.lr.ph41, label %._crit_edge, !llvm.loop !63

._crit_edge:                                      ; preds = %.loopexit, %.preheader
  ret void

.lr.ph41:                                         ; preds = %.preheader, %.loopexit
  %33 = phi i32 [ %30, %.loopexit ], [ %11, %.preheader ]
  %.03440 = phi i32 [ %37, %.loopexit ], [ 1, %.preheader ]
  %34 = mul nsw i32 %33, %.03440
  %35 = sext i32 %34 to i64
  %36 = getelementptr inbounds i8, ptr %1, i64 %35
  %37 = add nuw nsw i32 %.03440, 1
  %38 = add nsw i32 %33, 1
  %39 = mul nsw i32 %38, %37
  %40 = sext i32 %39 to i64
  %41 = getelementptr inbounds i32, ptr %2, i64 %40
  store i32 0, ptr %41, align 4, !tbaa !54
  %42 = load i8, ptr %36, align 1, !tbaa !61
  %43 = zext i8 %42 to i32
  %44 = getelementptr inbounds nuw i8, ptr %41, i64 4
  store i32 %43, ptr %44, align 4, !tbaa !54
  %45 = load i32, ptr %4, align 4, !tbaa !16
  %46 = icmp sgt i32 %45, 1
  br i1 %46, label %.lr.ph39.preheader, label %.loopexit

.lr.ph39.preheader:                               ; preds = %.lr.ph41
  %47 = load i8, ptr %36, align 1, !tbaa !61
  %48 = zext i8 %47 to i32
  br label %.lr.ph39

.lr.ph39:                                         ; preds = %.lr.ph39.preheader, %.lr.ph39
  %indvars.iv43 = phi i64 [ 1, %.lr.ph39.preheader ], [ %indvars.iv.next44, %.lr.ph39 ]
  %49 = phi i32 [ %45, %.lr.ph39.preheader ], [ %61, %.lr.ph39 ]
  %.03237 = phi i32 [ %48, %.lr.ph39.preheader ], [ %53, %.lr.ph39 ]
  %50 = getelementptr inbounds nuw i8, ptr %36, i64 %indvars.iv43
  %51 = load i8, ptr %50, align 1, !tbaa !61
  %52 = zext i8 %51 to i32
  %53 = add nuw nsw i32 %.03237, %52
  %indvars.iv.next44 = add nuw nsw i64 %indvars.iv43, 1
  %54 = trunc nuw nsw i64 %indvars.iv43 to i32
  %55 = sub i32 %54, %49
  %56 = sext i32 %55 to i64
  %57 = getelementptr inbounds i32, ptr %41, i64 %56
  %58 = load i32, ptr %57, align 4, !tbaa !54
  %59 = add i32 %53, %58
  %60 = getelementptr inbounds nuw i32, ptr %41, i64 %indvars.iv.next44
  store i32 %59, ptr %60, align 4, !tbaa !54
  %61 = load i32, ptr %4, align 4, !tbaa !16
  %62 = sext i32 %61 to i64
  %63 = icmp slt i64 %indvars.iv.next44, %62
  br i1 %63, label %.lr.ph39, label %.loopexit, !llvm.loop !64
}